target datalayout = "e-m:e-p270:32:32-p271:32:32-p272:64:64-i64:64-i128:128-f80:128-n8:16:32:64-S128"
target triple = "x86_64-pc-linux-gnu"

%struct.__va_list_tag = type { i32, i32, ptr, ptr }
%struct.attr_check = type { i32, i32, ptr, i32, ptr, ptr }
%struct.attr_check_item = type { ptr, ptr }

@.str.4 = private unnamed_addr constant [7 x i8] c"attr.c\00", align 1
@.str.5 = private unnamed_addr constant [26 x i8] c"counted %d != ended at %d\00", align 1
@.str.6 = private unnamed_addr constant [31 x i8] c"%s: not a valid attribute name\00", align 1

; Function Attrs: nounwind uwtable
define dso_local ptr @git_attr(ptr noundef %0) #0 {
  %2 = alloca ptr, align 8
  store ptr %0, ptr %2, align 8, !tbaa !9
  %3 = load ptr, ptr %2, align 8, !tbaa !9
  %4 = load ptr, ptr %2, align 8, !tbaa !9
  %5 = call i64 @strlen(ptr noundef %4) #10
  %6 = call ptr @git_attr_internal(ptr noundef %3, i64 noundef %5)
  ret ptr %6
}

; Function Attrs: nounwind uwtable
define dso_local ptr @attr_check_initl(ptr noundef %0, ...) #0 {
  %2 = alloca ptr, align 8
  %3 = alloca ptr, align 8
  %4 = alloca i32, align 4
  %5 = alloca [1 x %struct.__va_list_tag], align 16
  %6 = alloca ptr, align 8
  %7 = alloca ptr, align 8
  store ptr %0, ptr %2, align 8, !tbaa !9
  call void @llvm.lifetime.start.p0(i64 8, ptr %3) #11
  call void @llvm.lifetime.start.p0(i64 4, ptr %4) #11
  call void @llvm.lifetime.start.p0(i64 24, ptr %5) #11
  call void @llvm.lifetime.start.p0(i64 8, ptr %6) #11
  %8 = getelementptr inbounds [1 x %struct.__va_list_tag], ptr %5, i64 0, i64 0
  call void @llvm.va_start.p0(ptr %8)
  store i32 1, ptr %4, align 4, !tbaa !13
  br label %9

9:                                                ; preds = %28, %1
  %10 = getelementptr inbounds [1 x %struct.__va_list_tag], ptr %5, i64 0, i64 0
  %11 = getelementptr inbounds nuw %struct.__va_list_tag, ptr %10, i32 0, i32 0
  %12 = load i32, ptr %11, align 16
  %13 = icmp ule i32 %12, 40
  br i1 %13, label %14, label %19

14:                                               ; preds = %9
  %15 = getelementptr inbounds nuw %struct.__va_list_tag, ptr %10, i32 0, i32 3
  %16 = load ptr, ptr %15, align 16
  %17 = getelementptr i8, ptr %16, i32 %12
  %18 = add i32 %12, 8
  store i32 %18, ptr %11, align 16
  br label %23

19:                                               ; preds = %9
  %20 = getelementptr inbounds nuw %struct.__va_list_tag, ptr %10, i32 0, i32 2
  %21 = load ptr, ptr %20, align 8
  %22 = getelementptr i8, ptr %21, i32 8
  store ptr %22, ptr %20, align 8
  br label %23

23:                                               ; preds = %19, %14
  %24 = phi ptr [ %17, %14 ], [ %21, %19 ]
  %25 = load ptr, ptr %24, align 8, !tbaa !9
  store ptr %25, ptr %6, align 8, !tbaa !9
  %26 = icmp ne ptr %25, null
  br i1 %26, label %27, label %31

27:                                               ; preds = %23
  br label %28

28:                                               ; preds = %27
  %29 = load i32, ptr %4, align 4, !tbaa !13
  %30 = add nsw i32 %29, 1
  store i32 %30, ptr %4, align 4, !tbaa !13
  br label %9, !llvm.loop !39

31:                                               ; preds = %23
  %32 = getelementptr inbounds [1 x %struct.__va_list_tag], ptr %5, i64 0, i64 0
  call void @llvm.va_end.p0(ptr %32)
  %33 = call ptr @attr_check_alloc()
  store ptr %33, ptr %3, align 8, !tbaa !32
  %34 = load i32, ptr %4, align 4, !tbaa !13
  %35 = load ptr, ptr %3, align 8, !tbaa !32
  %36 = getelementptr inbounds nuw %struct.attr_check, ptr %35, i32 0, i32 0
  store i32 %34, ptr %36, align 8, !tbaa !40
  %37 = load i32, ptr %4, align 4, !tbaa !13
  %38 = load ptr, ptr %3, align 8, !tbaa !32
  %39 = getelementptr inbounds nuw %struct.attr_check, ptr %38, i32 0, i32 1
  store i32 %37, ptr %39, align 4, !tbaa !45
  %40 = load i32, ptr %4, align 4, !tbaa !13
  %41 = sext i32 %40 to i64
  %42 = call ptr @xcalloc(i64 noundef %41, i64 noundef 16)
  %43 = load ptr, ptr %3, align 8, !tbaa !32
  %44 = getelementptr inbounds nuw %struct.attr_check, ptr %43, i32 0, i32 2
  store ptr %42, ptr %44, align 8, !tbaa !46
  %45 = load ptr, ptr %2, align 8, !tbaa !9
  %46 = call ptr @git_attr(ptr noundef %45)
  %47 = load ptr, ptr %3, align 8, !tbaa !32
  %48 = getelementptr inbounds nuw %struct.attr_check, ptr %47, i32 0, i32 2
  %49 = load ptr, ptr %48, align 8, !tbaa !46
  %50 = getelementptr inbounds %struct.attr_check_item, ptr %49, i64 0
  %51 = getelementptr inbounds nuw %struct.attr_check_item, ptr %50, i32 0, i32 0
  store ptr %46, ptr %51, align 8, !tbaa !47
  %52 = getelementptr inbounds [1 x %struct.__va_list_tag], ptr %5, i64 0, i64 0
  call void @llvm.va_start.p0(ptr %52)
  store i32 1, ptr %4, align 4, !tbaa !13
  br label %53

53:                                               ; preds = %99, %31
  %54 = load i32, ptr %4, align 4, !tbaa !13
  %55 = load ptr, ptr %3, align 8, !tbaa !32
  %56 = getelementptr inbounds nuw %struct.attr_check, ptr %55, i32 0, i32 0
  %57 = load i32, ptr %56, align 8, !tbaa !40
  %58 = icmp slt i32 %54, %57
  br i1 %58, label %59, label %102

59:                                               ; preds = %53
  call void @llvm.lifetime.start.p0(i64 8, ptr %7) #11
  %60 = getelementptr inbounds [1 x %struct.__va_list_tag], ptr %5, i64 0, i64 0
  %61 = getelementptr inbounds nuw %struct.__va_list_tag, ptr %60, i32 0, i32 0
  %62 = load i32, ptr %61, align 16
  %63 = icmp ule i32 %62, 40
  br i1 %63, label %64, label %69

64:                                               ; preds = %59
  %65 = getelementptr inbounds nuw %struct.__va_list_tag, ptr %60, i32 0, i32 3
  %66 = load ptr, ptr %65, align 16
  %67 = getelementptr i8, ptr %66, i32 %62
  %68 = add i32 %62, 8
  store i32 %68, ptr %61, align 16
  br label %73

69:                                               ; preds = %59
  %70 = getelementptr inbounds nuw %struct.__va_list_tag, ptr %60, i32 0, i32 2
  %71 = load ptr, ptr %70, align 8
  %72 = getelementptr i8, ptr %71, i32 8
  store ptr %72, ptr %70, align 8
  br label %73

73:                                               ; preds = %69, %64
  %74 = phi ptr [ %67, %64 ], [ %71, %69 ]
  %75 = load ptr, ptr %74, align 8, !tbaa !9
  store ptr %75, ptr %6, align 8, !tbaa !9
  %76 = load ptr, ptr %6, align 8, !tbaa !9
  %77 = icmp ne ptr %76, null
  br i1 %77, label %83, label %78

78:                                               ; preds = %73
  %79 = load ptr, ptr %3, align 8, !tbaa !32
  %80 = getelementptr inbounds nuw %struct.attr_check, ptr %79, i32 0, i32 0
  %81 = load i32, ptr %80, align 8, !tbaa !40
  %82 = load i32, ptr %4, align 4, !tbaa !13
  call void (ptr, i32, ptr, ...) @BUG_fl(ptr noundef @.str.4, i32 noundef 573, ptr noundef @.str.5, i32 noundef %81, i32 noundef %82) #12
  unreachable

83:                                               ; preds = %73
  %84 = load ptr, ptr %6, align 8, !tbaa !9
  %85 = call ptr @git_attr(ptr noundef %84)
  store ptr %85, ptr %7, align 8, !tbaa !4
  %86 = load ptr, ptr %7, align 8, !tbaa !4
  %87 = icmp ne ptr %86, null
  br i1 %87, label %90, label %88

88:                                               ; preds = %83
  %89 = load ptr, ptr %6, align 8, !tbaa !9
  call void (ptr, i32, ptr, ...) @BUG_fl(ptr noundef @.str.4, i32 noundef 576, ptr noundef @.str.6, ptr noundef %89) #12
  unreachable

90:                                               ; preds = %83
  %91 = load ptr, ptr %7, align 8, !tbaa !4
  %92 = load ptr, ptr %3, align 8, !tbaa !32
  %93 = getelementptr inbounds nuw %struct.attr_check, ptr %92, i32 0, i32 2
  %94 = load ptr, ptr %93, align 8, !tbaa !46
  %95 = load i32, ptr %4, align 4, !tbaa !13
  %96 = sext i32 %95 to i64
  %97 = getelementptr inbounds %struct.attr_check_item, ptr %94, i64 %96
  %98 = getelementptr inbounds nuw %struct.attr_check_item, ptr %97, i32 0, i32 0
  store ptr %91, ptr %98, align 8, !tbaa !47
  call void @llvm.lifetime.end.p0(i64 8, ptr %7) #11
  br label %99

99:                                               ; preds = %90
  %100 = load i32, ptr %4, align 4, !tbaa !13
  %101 = add nsw i32 %100, 1
  store i32 %101, ptr %4, align 4, !tbaa !13
  br label %53, !llvm.loop !49

102:                                              ; preds = %53
  %103 = getelementptr inbounds [1 x %struct.__va_list_tag], ptr %5, i64 0, i64 0
  call void @llvm.va_end.p0(ptr %103)
  %104 = load ptr, ptr %3, align 8, !tbaa !32
  call void @llvm.lifetime.end.p0(i64 8, ptr %6) #11
  call void @llvm.lifetime.end.p0(i64 24, ptr %5) #11
  call void @llvm.lifetime.end.p0(i64 4, ptr %4) #11
  call void @llvm.lifetime.end.p0(i64 8, ptr %3) #11
  ret ptr %104
}