; Function Attrs: nounwind uwtable
define dso_local noundef ptr @attr_check_initl(ptr noundef %0, ...) local_unnamed_addr #1 {
  %2 = alloca [1 x %struct.__va_list_tag], align 16
  call void @llvm.lifetime.start.p0(i64 24, ptr nonnull %2) #21
  call void @llvm.va_start.p0(ptr nonnull %2)
  %.promoted = load i32, ptr %2, align 16
  %3 = getelementptr inbounds nuw i8, ptr %2, i64 8
  %4 = getelementptr inbounds nuw i8, ptr %2, i64 16
  %5 = load ptr, ptr %4, align 16
  %.promoted30 = load ptr, ptr %3, align 8
  br label %6

6:                                                ; preds = %16, %1
  %7 = phi ptr [ %.promoted30, %1 ], [ %17, %16 ]
  %8 = phi i32 [ %.promoted, %1 ], [ %18, %16 ]
  %.0 = phi i32 [ 1, %1 ], [ %21, %16 ]
  %9 = icmp ult i32 %8, 41
  br i1 %9, label %10, label %14

10:                                               ; preds = %6
  %11 = zext nneg i32 %8 to i64
  %12 = getelementptr i8, ptr %5, i64 %11
  %13 = add nuw nsw i32 %8, 8
  store i32 %13, ptr %2, align 16
  br label %16

14:                                               ; preds = %6
  %15 = getelementptr i8, ptr %7, i64 8
  store ptr %15, ptr %3, align 8
  br label %16

16:                                               ; preds = %14, %10
  %17 = phi ptr [ %7, %10 ], [ %15, %14 ]
  %18 = phi i32 [ %13, %10 ], [ %8, %14 ]
  %19 = phi ptr [ %12, %10 ], [ %7, %14 ]
  %20 = load ptr, ptr %19, align 8, !tbaa !26
  %.not = icmp eq ptr %20, null
  %21 = add nuw nsw i32 %.0, 1
  br i1 %.not, label %22, label %6, !llvm.loop !44

22:                                               ; preds = %16
  call void @llvm.va_end.p0(ptr nonnull %2)
  %23 = call ptr @attr_check_alloc()
  store i32 %.0, ptr %23, align 8, !tbaa !45
  %24 = getelementptr inbounds nuw i8, ptr %23, i64 4
  store i32 %.0, ptr %24, align 4, !tbaa !50
  %25 = zext nneg i32 %.0 to i64
  %26 = call ptr @xcalloc(i64 noundef %25, i64 noundef 16) #21
  %27 = getelementptr inbounds nuw i8, ptr %23, i64 8
  store ptr %26, ptr %27, align 8, !tbaa !51
  %28 = call i64 @strlen(ptr noundef nonnull dereferenceable(1) %0) #20
  %29 = call fastcc ptr @git_attr_internal(ptr noundef nonnull %0, i64 noundef %28)
  %30 = load ptr, ptr %27, align 8, !tbaa !51
  store ptr %29, ptr %30, align 8, !tbaa !52
  call void @llvm.va_start.p0(ptr nonnull %2)
  %31 = load i32, ptr %23, align 8, !tbaa !45
  %32 = icmp sgt i32 %31, 1
  br i1 %32, label %.lr.ph, label %._crit_edge

.lr.ph:                                           ; preds = %22, %53
  %indvars.iv = phi i64 [ %indvars.iv.next, %53 ], [ 1, %22 ]
  %33 = load i32, ptr %2, align 16
  %34 = icmp ult i32 %33, 41
  br i1 %34, label %35, label %40

35:                                               ; preds = %.lr.ph
  %36 = load ptr, ptr %4, align 16
  %37 = zext nneg i32 %33 to i64
  %38 = getelementptr i8, ptr %36, i64 %37
  %39 = add nuw nsw i32 %33, 8
  store i32 %39, ptr %2, align 16
  br label %43

40:                                               ; preds = %.lr.ph
  %41 = load ptr, ptr %3, align 8
  %42 = getelementptr i8, ptr %41, i64 8
  store ptr %42, ptr %3, align 8
  br label %43

43:                                               ; preds = %40, %35
  %44 = phi ptr [ %38, %35 ], [ %41, %40 ]
  %45 = load ptr, ptr %44, align 8, !tbaa !26
  %.not25 = icmp eq ptr %45, null
  br i1 %.not25, label %46, label %49

46:                                               ; preds = %43
  %47 = trunc nuw nsw i64 %indvars.iv to i32
  %48 = load i32, ptr %23, align 8, !tbaa !45
  call void (ptr, i32, ptr, ...) @BUG_fl(ptr noundef nonnull @.str.4, i32 noundef 573, ptr noundef nonnull @.str.5, i32 noundef %48, i32 noundef %47) #22
  unreachable

49:                                               ; preds = %43
  %50 = call i64 @strlen(ptr noundef nonnull dereferenceable(1) %45) #20
  %51 = call fastcc ptr @git_attr_internal(ptr noundef nonnull %45, i64 noundef %50)
  %.not26 = icmp eq ptr %51, null
  br i1 %.not26, label %52, label %53

52:                                               ; preds = %49
  call void (ptr, i32, ptr, ...) @BUG_fl(ptr noundef nonnull @.str.4, i32 noundef 576, ptr noundef nonnull @.str.6, ptr noundef nonnull %45) #22
  unreachable

53:                                               ; preds = %49
  %54 = load ptr, ptr %27, align 8, !tbaa !51
  %55 = getelementptr inbounds nuw %struct.attr_check_item, ptr %54, i64 %indvars.iv
  store ptr %51, ptr %55, align 8, !tbaa !52
  %indvars.iv.next = add nuw nsw i64 %indvars.iv, 1
  %56 = load i32, ptr %23, align 8, !tbaa !45
  %57 = sext i32 %56 to i64
  %58 = icmp slt i64 %indvars.iv.next, %57
  br i1 %58, label %.lr.ph, label %._crit_edge, !llvm.loop !54

._crit_edge:                                      ; preds = %53, %22
  call void @llvm.va_end.p0(ptr nonnull %2)
  call void @llvm.lifetime.end.p0(i64 24, ptr nonnull %2) #21
  ret ptr %23
}